target datalayout = "e-m:e-p270:32:32-p271:32:32-p272:64:64-i64:64-i128:128-f80:128-n8:16:32:64-S128"
target triple = "x86_64-pc-linux-gnu"

%"struct.dap::json::NullDeserializer" = type { %"class.dap::Deserializer" }
%"class.dap::Deserializer" = type { ptr }
%"struct.dap::json::JsonCppDeserializer" = type <{ %"class.dap::Deserializer", ptr, i8, [7 x i8] }>
%"class.std::function" = type { %"class.std::_Function_base", ptr }
%"class.std::_Function_base" = type { %"union.std::_Any_data", ptr }
%"union.std::_Any_data" = type { %"union.std::_Nocopy_types" }
%"union.std::_Nocopy_types" = type { { i64, i64 } }

@_ZN3dap4json16NullDeserializer8instanceE = external global %"struct.dap::json::NullDeserializer", align 8
@_ZN3dap4json19JsonCppDeserializerC1EPKN4Json5ValueE = dso_local unnamed_addr alias void (ptr, ptr), ptr @_ZN3dap4json19JsonCppDeserializerC2EPKN4Json5ValueE
@_ZN3dap4json19JsonCppDeserializerD1Ev = dso_local unnamed_addr alias void (ptr), ptr @_ZN3dap4json19JsonCppDeserializerD2Ev

; Function Attrs: mustprogress nounwind uwtable
define linkonce_odr dso_local noundef zeroext i1 @_ZNKSt14_Function_base8_M_emptyEv(ptr noundef nonnull align 8 dereferenceable(24) %0) #1 comdat align 2 {
  %2 = alloca ptr, align 8
  store ptr %0, ptr %2, align 8
  %3 = load ptr, ptr %2, align 8
  %4 = getelementptr inbounds %"class.std::_Function_base", ptr %3, i32 0, i32 1
  %5 = load ptr, ptr %4, align 8
  %6 = icmp ne ptr %5, null
  %7 = xor i1 %6, true
  ret i1 %7
}

; Function Attrs: mustprogress uwtable
define linkonce_odr dso_local noundef zeroext i1 @_ZNKSt8functionIFbPN3dap12DeserializerEEEclES2_(ptr noundef nonnull align 8 dereferenceable(32) %0, ptr noundef %1) #0 comdat align 2 {
  %3 = alloca ptr, align 8
  %4 = alloca ptr, align 8
  store ptr %0, ptr %3, align 8
  store ptr %1, ptr %4, align 8
  %5 = load ptr, ptr %3, align 8
  %6 = call noundef zeroext i1 @_ZNKSt14_Function_base8_M_emptyEv(ptr noundef nonnull align 8 dereferenceable(24) %5)
  br i1 %6, label %7, label %8

7:                                                ; preds = %2
  call void @_ZSt25__throw_bad_function_callv() #17
  unreachable

8:                                                ; preds = %2
  %9 = getelementptr inbounds %"class.std::function", ptr %5, i32 0, i32 1
  %10 = load ptr, ptr %9, align 8
  %11 = getelementptr inbounds %"class.std::_Function_base", ptr %5, i32 0, i32 0
  %12 = call noundef zeroext i1 %10(ptr noundef nonnull align 8 dereferenceable(16) %11, ptr noundef nonnull align 8 dereferenceable(8) %4)
  ret i1 %12
}

; Function Attrs: mustprogress uwtable
define dso_local noundef zeroext i1 @_ZNK3dap4json19JsonCppDeserializer5fieldERKNSt7__cxx1112basic_stringIcSt11char_traitsIcESaIcEEERKSt8functionIFbPNS_12DeserializerEEE(ptr noundef nonnull align 8 dereferenceable(17) %0, ptr noundef nonnull align 8 dereferenceable(32) %1, ptr noundef nonnull align 8 dereferenceable(32) %2) unnamed_addr #0 align 2 personality ptr @__gxx_personality_v0 {
  %4 = alloca i1, align 1
  %5 = alloca ptr, align 8
  %6 = alloca ptr, align 8
  %7 = alloca ptr, align 8
  %8 = alloca ptr, align 8
  %9 = alloca %"struct.dap::json::JsonCppDeserializer", align 8
  %10 = alloca ptr, align 8
  %11 = alloca i32, align 4
  store ptr %0, ptr %5, align 8
  store ptr %1, ptr %6, align 8
  store ptr %2, ptr %7, align 8
  %12 = load ptr, ptr %5, align 8
  %13 = getelementptr inbounds %"struct.dap::json::JsonCppDeserializer", ptr %12, i32 0, i32 1
  %14 = load ptr, ptr %13, align 8
  %15 = call noundef zeroext i1 @_ZNK4Json5Value8isObjectEv(ptr noundef nonnull align 8 dereferenceable(40) %14)
  br i1 %15, label %17, label %16

16:                                               ; preds = %3
  store i1 false, ptr %4, align 1
  br label %42

17:                                               ; preds = %3
  %18 = getelementptr inbounds %"struct.dap::json::JsonCppDeserializer", ptr %12, i32 0, i32 1
  %19 = load ptr, ptr %18, align 8
  %20 = load ptr, ptr %6, align 8
  %21 = call noundef ptr @_ZNKSt7__cxx1112basic_stringIcSt11char_traitsIcESaIcEE4dataEv(ptr noundef nonnull align 8 dereferenceable(32) %20) #13
  %22 = load ptr, ptr %6, align 8
  %23 = call noundef ptr @_ZNKSt7__cxx1112basic_stringIcSt11char_traitsIcESaIcEE4dataEv(ptr noundef nonnull align 8 dereferenceable(32) %22) #13
  %24 = load ptr, ptr %6, align 8
  %25 = call noundef i64 @_ZNKSt7__cxx1112basic_stringIcSt11char_traitsIcESaIcEE4sizeEv(ptr noundef nonnull align 8 dereferenceable(32) %24) #13
  %26 = getelementptr inbounds i8, ptr %23, i64 %25
  %27 = call noundef ptr @_ZNK4Json5Value4findEPKcS2_(ptr noundef nonnull align 8 dereferenceable(40) %19, ptr noundef %21, ptr noundef %26)
  store ptr %27, ptr %8, align 8
  %28 = load ptr, ptr %8, align 8
  %29 = icmp eq ptr %28, null
  br i1 %29, label %30, label %33

30:                                               ; preds = %17
  %31 = load ptr, ptr %7, align 8
  %32 = call noundef zeroext i1 @_ZNKSt8functionIFbPN3dap12DeserializerEEEclES2_(ptr noundef nonnull align 8 dereferenceable(32) %31, ptr noundef @_ZN3dap4json16NullDeserializer8instanceE)
  store i1 %32, ptr %4, align 1
  br label %42

33:                                               ; preds = %17
  %34 = load ptr, ptr %8, align 8
  call void @_ZN3dap4json19JsonCppDeserializerC1EPKN4Json5ValueE(ptr noundef nonnull align 8 dereferenceable(17) %9, ptr noundef %34)
  %35 = load ptr, ptr %7, align 8
  %36 = invoke noundef zeroext i1 @_ZNKSt8functionIFbPN3dap12DeserializerEEEclES2_(ptr noundef nonnull align 8 dereferenceable(32) %35, ptr noundef %9)
          to label %37 unwind label %38

37:                                               ; preds = %33
  store i1 %36, ptr %4, align 1
  call void @_ZN3dap4json19JsonCppDeserializerD1Ev(ptr noundef nonnull align 8 dereferenceable(17) %9) #13
  br label %42

38:                                               ; preds = %33
  %39 = landingpad { ptr, i32 }
          cleanup
  %40 = extractvalue { ptr, i32 } %39, 0
  store ptr %40, ptr %10, align 8
  %41 = extractvalue { ptr, i32 } %39, 1
  store i32 %41, ptr %11, align 4
  call void @_ZN3dap4json19JsonCppDeserializerD1Ev(ptr noundef nonnull align 8 dereferenceable(17) %9) #13
  br label %44

42:                                               ; preds = %37, %30, %16
  %43 = load i1, ptr %4, align 1
  ret i1 %43

44:                                               ; preds = %38
  %45 = load ptr, ptr %10, align 8
  %46 = load i32, ptr %11, align 4
  %47 = insertvalue { ptr, i32 } poison, ptr %45, 0
  %48 = insertvalue { ptr, i32 } %47, i32 %46, 1
  resume { ptr, i32 } %48
}