; Function Attrs: mustprogress uwtable
define dso_local noundef zeroext i1 @_ZNK3dap4json19JsonCppDeserializer5fieldERKNSt7__cxx1112basic_stringIcSt11char_traitsIcESaIcEEERKSt8functionIFbPNS_12DeserializerEEE(ptr nocapture noundef nonnull readonly align 8 dereferenceable(17) %0, ptr noundef nonnull align 8 dereferenceable(32) %1, ptr noundef nonnull align 8 dereferenceable(32) %2) unnamed_addr #0 align 2 personality ptr @__gxx_personality_v0 {
  %4 = alloca ptr, align 8
  %5 = alloca ptr, align 8
  %6 = alloca %"struct.dap::json::JsonCppDeserializer", align 8
  %7 = getelementptr inbounds i8, ptr %0, i64 8
  %8 = load ptr, ptr %7, align 8
  %9 = tail call noundef zeroext i1 @_ZNK4Json5Value8isObjectEv(ptr noundef nonnull align 8 dereferenceable(40) %8)
  br i1 %9, label %10, label %_ZN3dap4json19JsonCppDeserializerD2Ev.exit

10:                                               ; preds = %3
  %11 = load ptr, ptr %7, align 8
  %12 = tail call noundef ptr @_ZNKSt7__cxx1112basic_stringIcSt11char_traitsIcESaIcEE4dataEv(ptr noundef nonnull align 8 dereferenceable(32) %1) #21
  %13 = tail call noundef ptr @_ZNKSt7__cxx1112basic_stringIcSt11char_traitsIcESaIcEE4dataEv(ptr noundef nonnull align 8 dereferenceable(32) %1) #21
  %14 = tail call noundef i64 @_ZNKSt7__cxx1112basic_stringIcSt11char_traitsIcESaIcEE4sizeEv(ptr noundef nonnull align 8 dereferenceable(32) %1) #21
  %15 = getelementptr inbounds i8, ptr %13, i64 %14
  %16 = tail call noundef ptr @_ZNK4Json5Value4findEPKcS2_(ptr noundef nonnull align 8 dereferenceable(40) %11, ptr noundef %12, ptr noundef %15)
  %17 = icmp eq ptr %16, null
  br i1 %17, label %18, label %25

18:                                               ; preds = %10
  call void @llvm.lifetime.start.p0(i64 8, ptr nonnull %5)
  store ptr @_ZN3dap4json16NullDeserializer8instanceE, ptr %5, align 8
  %19 = getelementptr inbounds i8, ptr %2, i64 16
  %20 = load ptr, ptr %19, align 8
  %.not.i.i = icmp eq ptr %20, null
  br i1 %.not.i.i, label %21, label %_ZNKSt8functionIFbPN3dap12DeserializerEEEclES2_.exit

21:                                               ; preds = %18
  tail call void @_ZSt25__throw_bad_function_callv() #23
  unreachable

_ZNKSt8functionIFbPN3dap12DeserializerEEEclES2_.exit: ; preds = %18
  %22 = getelementptr inbounds i8, ptr %2, i64 24
  %23 = load ptr, ptr %22, align 8
  %24 = call noundef zeroext i1 %23(ptr noundef nonnull align 8 dereferenceable(16) %2, ptr noundef nonnull align 8 dereferenceable(8) %5)
  call void @llvm.lifetime.end.p0(i64 8, ptr nonnull %5)
  br label %_ZN3dap4json19JsonCppDeserializerD2Ev.exit

25:                                               ; preds = %10
  store ptr getelementptr inbounds ({ [13 x ptr] }, ptr @_ZTVN3dap4json19JsonCppDeserializerE, i64 0, i32 0, i64 2), ptr %6, align 8
  %26 = getelementptr inbounds i8, ptr %6, i64 8
  store ptr %16, ptr %26, align 8
  %27 = getelementptr inbounds i8, ptr %6, i64 16
  store i8 0, ptr %27, align 8
  call void @llvm.lifetime.start.p0(i64 8, ptr nonnull %4)
  store ptr %6, ptr %4, align 8
  %28 = getelementptr inbounds i8, ptr %2, i64 16
  %29 = load ptr, ptr %28, align 8
  %.not.i.i11 = icmp eq ptr %29, null
  br i1 %.not.i.i11, label %30, label %31

30:                                               ; preds = %25
  invoke void @_ZSt25__throw_bad_function_callv() #23
          to label %.noexc unwind label %42

.noexc:                                           ; preds = %30
  unreachable

31:                                               ; preds = %25
  %32 = getelementptr inbounds i8, ptr %2, i64 24
  %33 = load ptr, ptr %32, align 8
  %34 = invoke noundef zeroext i1 %33(ptr noundef nonnull align 8 dereferenceable(16) %2, ptr noundef nonnull align 8 dereferenceable(8) %4)
          to label %35 unwind label %42

35:                                               ; preds = %31
  call void @llvm.lifetime.end.p0(i64 8, ptr nonnull %4)
  store ptr getelementptr inbounds ({ [13 x ptr] }, ptr @_ZTVN3dap4json19JsonCppDeserializerE, i64 0, i32 0, i64 2), ptr %6, align 8
  %36 = load i8, ptr %27, align 8
  %37 = and i8 %36, 1
  %.not.i = icmp eq i8 %37, 0
  br i1 %.not.i, label %_ZN3dap4json19JsonCppDeserializerD2Ev.exit, label %38

38:                                               ; preds = %35
  %39 = load ptr, ptr %26, align 8
  %40 = icmp eq ptr %39, null
  br i1 %40, label %_ZN3dap4json19JsonCppDeserializerD2Ev.exit, label %41

41:                                               ; preds = %38
  call void @_ZN4Json5ValueD1Ev(ptr noundef nonnull align 8 dereferenceable(40) %39) #21
  call void @_ZdlPv(ptr noundef nonnull %39) #20
  br label %_ZN3dap4json19JsonCppDeserializerD2Ev.exit

42:                                               ; preds = %31, %30
  %43 = landingpad { ptr, i32 }
          cleanup
  call void @_ZN3dap4json19JsonCppDeserializerD2Ev(ptr noundef nonnull align 8 dereferenceable(17) %6) #21
  resume { ptr, i32 } %43

_ZN3dap4json19JsonCppDeserializerD2Ev.exit:       ; preds = %41, %38, %35, %3, %_ZNKSt8functionIFbPN3dap12DeserializerEEEclES2_.exit
  %.0 = phi i1 [ %24, %_ZNKSt8functionIFbPN3dap12DeserializerEEEclES2_.exit ], [ false, %3 ], [ %34, %35 ], [ %34, %38 ], [ %34, %41 ]
  ret i1 %.0
}